target datalayout = "e-m:e-p270:32:32-p271:32:32-p272:64:64-i64:64-i128:128-f80:128-n8:16:32:64-S128"
target triple = "x86_64-pc-linux-gnu"

%struct._proto_node = type { ptr, ptr, ptr, ptr, ptr, ptr }
%struct.find_field_info_ = type { ptr, ptr }

; Function Attrs: mustprogress uwtable
define noundef zeroext i1 @_ZN14ProtoTreeModel16foreachFindFieldEP9ProtoNodePv(ptr noundef %0, ptr noundef %1) #0 align 2 {
  %3 = alloca i1, align 1
  %4 = alloca ptr, align 8
  %5 = alloca ptr, align 8
  %6 = alloca ptr, align 8
  %7 = alloca i32, align 4
  store ptr %0, ptr %4, align 8
  store ptr %1, ptr %5, align 8
  %8 = load ptr, ptr %5, align 8
  store ptr %8, ptr %6, align 8
  %9 = load ptr, ptr %4, align 8
  %10 = call noundef ptr @_ZNK9ProtoNode9protoNodeEv(ptr noundef nonnull align 8 dereferenceable(40) %9)
  %11 = getelementptr inbounds %struct._proto_node, ptr %10, i32 0, i32 4
  %12 = load ptr, ptr %11, align 8
  %13 = load ptr, ptr %6, align 8
  %14 = getelementptr inbounds %struct.find_field_info_, ptr %13, i32 0, i32 0
  %15 = load ptr, ptr %14, align 8
  %16 = icmp eq ptr %12, %15
  br i1 %16, label %17, label %21

17:                                               ; preds = %2
  %18 = load ptr, ptr %4, align 8
  %19 = load ptr, ptr %6, align 8
  %20 = getelementptr inbounds %struct.find_field_info_, ptr %19, i32 0, i32 1
  store ptr %18, ptr %20, align 8
  store i1 true, ptr %3, align 1
  br label %39

21:                                               ; preds = %2
  store i32 0, ptr %7, align 4
  br label %22

22:                                               ; preds = %35, %21
  %23 = load i32, ptr %7, align 4
  %24 = load ptr, ptr %4, align 8
  %25 = call noundef i32 @_ZNK9ProtoNode13childrenCountEv(ptr noundef nonnull align 8 dereferenceable(40) %24)
  %26 = icmp slt i32 %23, %25
  br i1 %26, label %27, label %38

27:                                               ; preds = %22
  %28 = load ptr, ptr %4, align 8
  %29 = load i32, ptr %7, align 4
  %30 = call noundef ptr @_ZN9ProtoNode5childEi(ptr noundef nonnull align 8 dereferenceable(40) %28, i32 noundef %29)
  %31 = load ptr, ptr %6, align 8
  %32 = call noundef zeroext i1 @_ZN14ProtoTreeModel16foreachFindFieldEP9ProtoNodePv(ptr noundef %30, ptr noundef %31)
  br i1 %32, label %33, label %34

33:                                               ; preds = %27
  store i1 true, ptr %3, align 1
  br label %39

34:                                               ; preds = %27
  br label %35

35:                                               ; preds = %34
  %36 = load i32, ptr %7, align 4
  %37 = add i32 %36, 1
  store i32 %37, ptr %7, align 4
  br label %22, !llvm.loop !6

38:                                               ; preds = %22
  store i1 false, ptr %3, align 1
  br label %39

39:                                               ; preds = %38, %33, %17
  %40 = load i1, ptr %3, align 1
  ret i1 %40
}