; Function Attrs: mustprogress uwtable
define noundef zeroext i1 @_ZN14ProtoTreeModel16foreachFindFieldEP9ProtoNodePv(ptr noundef nonnull %0, ptr nocapture noundef %1) local_unnamed_addr #0 align 2 {
  %3 = tail call noundef ptr @_ZNK9ProtoNode9protoNodeEv(ptr noundef nonnull align 8 dereferenceable(40) %0)
  %4 = getelementptr inbounds i8, ptr %3, i64 32
  %5 = load ptr, ptr %4, align 8
  %6 = load ptr, ptr %1, align 8
  %7 = icmp eq ptr %5, %6
  br i1 %7, label %10, label %.preheader

.preheader:                                       ; preds = %2
  %8 = tail call noundef i32 @_ZNK9ProtoNode13childrenCountEv(ptr noundef nonnull align 8 dereferenceable(40) %0)
  %9 = icmp sgt i32 %8, 0
  br i1 %9, label %.lr.ph, label %.loopexit

10:                                               ; preds = %2
  %11 = getelementptr inbounds i8, ptr %1, i64 8
  store ptr %0, ptr %11, align 8
  br label %.loopexit

12:                                               ; preds = %.lr.ph
  %13 = add nuw nsw i32 %.012, 1
  %14 = tail call noundef i32 @_ZNK9ProtoNode13childrenCountEv(ptr noundef nonnull align 8 dereferenceable(40) %0)
  %15 = icmp slt i32 %13, %14
  br i1 %15, label %.lr.ph, label %.loopexit, !llvm.loop !24

.lr.ph:                                           ; preds = %.preheader, %12
  %.012 = phi i32 [ %13, %12 ], [ 0, %.preheader ]
  %16 = tail call noundef ptr @_ZN9ProtoNode5childEi(ptr noundef nonnull align 8 dereferenceable(40) %0, i32 noundef %.012)
  %17 = tail call noundef zeroext i1 @_ZN14ProtoTreeModel16foreachFindFieldEP9ProtoNodePv(ptr noundef %16, ptr noundef nonnull %1)
  br i1 %17, label %.loopexit, label %12

.loopexit:                                        ; preds = %.lr.ph, %12, %.preheader, %10
  %.011 = phi i1 [ true, %10 ], [ false, %.preheader ], [ %17, %12 ], [ %17, %.lr.ph ]
  ret i1 %.011
}